target datalayout = "e-m:e-p270:32:32-p271:32:32-p272:64:64-i64:64-i128:128-f80:128-n8:16:32:64-S128"
target triple = "x86_64-pc-linux-gnu"

%struct.decNumber = type { i32, i32, i8, [1 x i8] }
%struct.decContext = type { i32, i32, i32, i32, i32, i32, i8 }

@_ZL9DECPOWERS = internal constant [10 x i32] [i32 1, i32 10, i32 100, i32 1000, i32 10000, i32 100000, i32 1000000, i32 10000000, i32 100000000, i32 1000000000], align 16
@_ZL8d2utable = internal constant [50 x i8] c"\00\01\02\03\04\05\06\07\08\09\0A\0B\0C\0D\0E\0F\10\11\12\13\14\15\16\17\18\19\1A\1B\1C\1D\1E\1F !\22#$%&'()*+,-./01", align 16

; Function Attrs: mustprogress nounwind uwtable
define ptr @uprv_decNumberZero_77(ptr noundef %0) #2 {
  %2 = alloca ptr, align 8
  store ptr %0, ptr %2, align 8, !tbaa !3
  %3 = load ptr, ptr %2, align 8, !tbaa !3
  %4 = getelementptr inbounds nuw %struct.decNumber, ptr %3, i32 0, i32 2
  store i8 0, ptr %4, align 4, !tbaa !9
  %5 = load ptr, ptr %2, align 8, !tbaa !3
  %6 = getelementptr inbounds nuw %struct.decNumber, ptr %5, i32 0, i32 1
  store i32 0, ptr %6, align 4, !tbaa !17
  %7 = load ptr, ptr %2, align 8, !tbaa !3
  %8 = getelementptr inbounds nuw %struct.decNumber, ptr %7, i32 0, i32 0
  store i32 1, ptr %8, align 4, !tbaa !16
  %9 = load ptr, ptr %2, align 8, !tbaa !3
  %10 = getelementptr inbounds nuw %struct.decNumber, ptr %9, i32 0, i32 3
  %11 = getelementptr inbounds [1 x i8], ptr %10, i64 0, i64 0
  store i8 0, ptr %11, align 1, !tbaa !13
  %12 = load ptr, ptr %2, align 8, !tbaa !3
  ret ptr %12
}

; Function Attrs: mustprogress nounwind uwtable
define internal noundef i32 @_ZL12decGetDigitsPhi(ptr noundef %0, i32 noundef %1) #2 {
  %3 = alloca ptr, align 8
  %4 = alloca i32, align 4
  %5 = alloca ptr, align 8
  %6 = alloca i32, align 4
  store ptr %0, ptr %3, align 8, !tbaa !11
  store i32 %1, ptr %4, align 4, !tbaa !7
  call void @llvm.lifetime.start.p0(i64 8, ptr %5) #8
  %7 = load ptr, ptr %3, align 8, !tbaa !11
  %8 = load i32, ptr %4, align 4, !tbaa !7
  %9 = sub nsw i32 %8, 1
  %10 = sext i32 %9 to i64
  %11 = getelementptr inbounds i8, ptr %7, i64 %10
  store ptr %11, ptr %5, align 8, !tbaa !11
  call void @llvm.lifetime.start.p0(i64 4, ptr %6) #8
  %12 = load i32, ptr %4, align 4, !tbaa !7
  %13 = sub nsw i32 %12, 1
  %14 = mul nsw i32 %13, 1
  %15 = add nsw i32 %14, 1
  store i32 %15, ptr %6, align 4, !tbaa !7
  br label %16

16:                                               ; preds = %33, %2
  %17 = load ptr, ptr %5, align 8, !tbaa !11
  %18 = load ptr, ptr %3, align 8, !tbaa !11
  %19 = icmp uge ptr %17, %18
  br i1 %19, label %20, label %36

20:                                               ; preds = %16
  %21 = load ptr, ptr %5, align 8, !tbaa !11
  %22 = load i8, ptr %21, align 1, !tbaa !13
  %23 = zext i8 %22 to i32
  %24 = icmp eq i32 %23, 0
  br i1 %24, label %25, label %32

25:                                               ; preds = %20
  %26 = load i32, ptr %6, align 4, !tbaa !7
  %27 = icmp eq i32 %26, 1
  br i1 %27, label %28, label %29

28:                                               ; preds = %25
  br label %36

29:                                               ; preds = %25
  %30 = load i32, ptr %6, align 4, !tbaa !7
  %31 = sub nsw i32 %30, 1
  store i32 %31, ptr %6, align 4, !tbaa !7
  br label %33

32:                                               ; preds = %20
  br label %36

33:                                               ; preds = %29
  %34 = load ptr, ptr %5, align 8, !tbaa !11
  %35 = getelementptr inbounds i8, ptr %34, i32 -1
  store ptr %35, ptr %5, align 8, !tbaa !11
  br label %16, !llvm.loop !18

36:                                               ; preds = %32, %28, %16
  %37 = load i32, ptr %6, align 4, !tbaa !7
  call void @llvm.lifetime.end.p0(i64 4, ptr %6) #8
  call void @llvm.lifetime.end.p0(i64 8, ptr %5) #8
  ret i32 %37
}

; Function Attrs: mustprogress uwtable
define internal void @_ZL9decStatusP9decNumberjP10decContext(ptr noundef %0, i32 noundef %1, ptr noundef %2) #0 {
  %4 = alloca ptr, align 8
  %5 = alloca i32, align 4
  %6 = alloca ptr, align 8
  store ptr %0, ptr %4, align 8, !tbaa !3
  store i32 %1, ptr %5, align 4, !tbaa !7
  store ptr %2, ptr %6, align 8, !tbaa !3
  %7 = load i32, ptr %5, align 4, !tbaa !7
  %8 = and i32 %7, 221
  %9 = icmp ne i32 %8, 0
  br i1 %9, label %10, label %23

10:                                               ; preds = %3
  %11 = load i32, ptr %5, align 4, !tbaa !7
  %12 = and i32 %11, 1073741824
  %13 = icmp ne i32 %12, 0
  br i1 %13, label %14, label %17

14:                                               ; preds = %10
  %15 = load i32, ptr %5, align 4, !tbaa !7
  %16 = and i32 %15, -1073741825
  store i32 %16, ptr %5, align 4, !tbaa !7
  br label %22

17:                                               ; preds = %10
  %18 = load ptr, ptr %4, align 8, !tbaa !3
  %19 = call ptr @uprv_decNumberZero_77(ptr noundef %18)
  %20 = load ptr, ptr %4, align 8, !tbaa !3
  %21 = getelementptr inbounds nuw %struct.decNumber, ptr %20, i32 0, i32 2
  store i8 32, ptr %21, align 4, !tbaa !9
  br label %22

22:                                               ; preds = %17, %14
  br label %23

23:                                               ; preds = %22, %3
  %24 = load ptr, ptr %6, align 8, !tbaa !3
  %25 = load i32, ptr %5, align 4, !tbaa !7
  %26 = call ptr @uprv_decContextSetStatus_77(ptr noundef %24, i32 noundef %25)
  ret void
}

; Function Attrs: mustprogress uwtable
define ptr @uprv_decNumberInvert_77(ptr noundef %0, ptr noundef %1, ptr noundef %2) #0 {
  %4 = alloca ptr, align 8
  %5 = alloca ptr, align 8
  %6 = alloca ptr, align 8
  %7 = alloca ptr, align 8
  %8 = alloca ptr, align 8
  %9 = alloca ptr, align 8
  %10 = alloca ptr, align 8
  %11 = alloca ptr, align 8
  %12 = alloca i32, align 4
  %13 = alloca i32, align 4
  %14 = alloca i8, align 1
  %15 = alloca i32, align 4
  %16 = alloca i32, align 4
  store ptr %0, ptr %5, align 8, !tbaa !3
  store ptr %1, ptr %6, align 8, !tbaa !3
  store ptr %2, ptr %7, align 8, !tbaa !3
  call void @llvm.lifetime.start.p0(i64 8, ptr %8) #8
  call void @llvm.lifetime.start.p0(i64 8, ptr %9) #8
  call void @llvm.lifetime.start.p0(i64 8, ptr %10) #8
  call void @llvm.lifetime.start.p0(i64 8, ptr %11) #8
  call void @llvm.lifetime.start.p0(i64 4, ptr %12) #8
  %17 = load ptr, ptr %6, align 8, !tbaa !3
  %18 = getelementptr inbounds nuw %struct.decNumber, ptr %17, i32 0, i32 1
  %19 = load i32, ptr %18, align 4, !tbaa !17
  %20 = icmp ne i32 %19, 0
  br i1 %20, label %35, label %21

21:                                               ; preds = %3
  %22 = load ptr, ptr %6, align 8, !tbaa !3
  %23 = getelementptr inbounds nuw %struct.decNumber, ptr %22, i32 0, i32 2
  %24 = load i8, ptr %23, align 4, !tbaa !9
  %25 = zext i8 %24 to i32
  %26 = and i32 %25, 112
  %27 = icmp ne i32 %26, 0
  br i1 %27, label %35, label %28

28:                                               ; preds = %21
  %29 = load ptr, ptr %6, align 8, !tbaa !3
  %30 = getelementptr inbounds nuw %struct.decNumber, ptr %29, i32 0, i32 2
  %31 = load i8, ptr %30, align 4, !tbaa !9
  %32 = zext i8 %31 to i32
  %33 = and i32 %32, 128
  %34 = icmp ne i32 %33, 0
  br i1 %34, label %35, label %39

35:                                               ; preds = %28, %21, %3
  %36 = load ptr, ptr %5, align 8, !tbaa !3
  %37 = load ptr, ptr %7, align 8, !tbaa !3
  call void @_ZL9decStatusP9decNumberjP10decContext(ptr noundef %36, i32 noundef 128, ptr noundef %37)
  %38 = load ptr, ptr %5, align 8, !tbaa !3
  store ptr %38, ptr %4, align 8
  store i32 1, ptr %13, align 4
  br label %216

39:                                               ; preds = %28
  %40 = load ptr, ptr %6, align 8, !tbaa !3
  %41 = getelementptr inbounds nuw %struct.decNumber, ptr %40, i32 0, i32 3
  %42 = getelementptr inbounds [1 x i8], ptr %41, i64 0, i64 0
  store ptr %42, ptr %8, align 8, !tbaa !11
  %43 = load ptr, ptr %5, align 8, !tbaa !3
  %44 = getelementptr inbounds nuw %struct.decNumber, ptr %43, i32 0, i32 3
  %45 = getelementptr inbounds [1 x i8], ptr %44, i64 0, i64 0
  store ptr %45, ptr %10, align 8, !tbaa !11
  %46 = load ptr, ptr %8, align 8, !tbaa !11
  %47 = load ptr, ptr %6, align 8, !tbaa !3
  %48 = getelementptr inbounds nuw %struct.decNumber, ptr %47, i32 0, i32 0
  %49 = load i32, ptr %48, align 4, !tbaa !16
  %50 = icmp sle i32 %49, 49
  br i1 %50, label %51, label %59

51:                                               ; preds = %39
  %52 = load ptr, ptr %6, align 8, !tbaa !3
  %53 = getelementptr inbounds nuw %struct.decNumber, ptr %52, i32 0, i32 0
  %54 = load i32, ptr %53, align 4, !tbaa !16
  %55 = sext i32 %54 to i64
  %56 = getelementptr inbounds [50 x i8], ptr @_ZL8d2utable, i64 0, i64 %55
  %57 = load i8, ptr %56, align 1, !tbaa !13
  %58 = zext i8 %57 to i32
  br label %66

59:                                               ; preds = %39
  %60 = load ptr, ptr %6, align 8, !tbaa !3
  %61 = getelementptr inbounds nuw %struct.decNumber, ptr %60, i32 0, i32 0
  %62 = load i32, ptr %61, align 4, !tbaa !16
  %63 = add nsw i32 %62, 1
  %64 = sub nsw i32 %63, 1
  %65 = sdiv i32 %64, 1
  br label %66

66:                                               ; preds = %59, %51
  %67 = phi i32 [ %58, %51 ], [ %65, %59 ]
  %68 = sext i32 %67 to i64
  %69 = getelementptr inbounds i8, ptr %46, i64 %68
  %70 = getelementptr inbounds i8, ptr %69, i64 -1
  store ptr %70, ptr %9, align 8, !tbaa !11
  %71 = load ptr, ptr %10, align 8, !tbaa !11
  %72 = load ptr, ptr %7, align 8, !tbaa !3
  %73 = getelementptr inbounds nuw %struct.decContext, ptr %72, i32 0, i32 0
  %74 = load i32, ptr %73, align 4, !tbaa !32
  %75 = icmp sle i32 %74, 49
  br i1 %75, label %76, label %84

76:                                               ; preds = %66
  %77 = load ptr, ptr %7, align 8, !tbaa !3
  %78 = getelementptr inbounds nuw %struct.decContext, ptr %77, i32 0, i32 0
  %79 = load i32, ptr %78, align 4, !tbaa !32
  %80 = sext i32 %79 to i64
  %81 = getelementptr inbounds [50 x i8], ptr @_ZL8d2utable, i64 0, i64 %80
  %82 = load i8, ptr %81, align 1, !tbaa !13
  %83 = zext i8 %82 to i32
  br label %91

84:                                               ; preds = %66
  %85 = load ptr, ptr %7, align 8, !tbaa !3
  %86 = getelementptr inbounds nuw %struct.decContext, ptr %85, i32 0, i32 0
  %87 = load i32, ptr %86, align 4, !tbaa !32
  %88 = add nsw i32 %87, 1
  %89 = sub nsw i32 %88, 1
  %90 = sdiv i32 %89, 1
  br label %91

91:                                               ; preds = %84, %76
  %92 = phi i32 [ %83, %76 ], [ %90, %84 ]
  %93 = sext i32 %92 to i64
  %94 = getelementptr inbounds i8, ptr %71, i64 %93
  %95 = getelementptr inbounds i8, ptr %94, i64 -1
  store ptr %95, ptr %11, align 8, !tbaa !11
  %96 = load ptr, ptr %7, align 8, !tbaa !3
  %97 = getelementptr inbounds nuw %struct.decContext, ptr %96, i32 0, i32 0
  %98 = load i32, ptr %97, align 4, !tbaa !32
  %99 = load ptr, ptr %7, align 8, !tbaa !3
  %100 = getelementptr inbounds nuw %struct.decContext, ptr %99, i32 0, i32 0
  %101 = load i32, ptr %100, align 4, !tbaa !32
  %102 = icmp sle i32 %101, 49
  br i1 %102, label %103, label %111

103:                                              ; preds = %91
  %104 = load ptr, ptr %7, align 8, !tbaa !3
  %105 = getelementptr inbounds nuw %struct.decContext, ptr %104, i32 0, i32 0
  %106 = load i32, ptr %105, align 4, !tbaa !32
  %107 = sext i32 %106 to i64
  %108 = getelementptr inbounds [50 x i8], ptr @_ZL8d2utable, i64 0, i64 %107
  %109 = load i8, ptr %108, align 1, !tbaa !13
  %110 = zext i8 %109 to i32
  br label %118

111:                                              ; preds = %91
  %112 = load ptr, ptr %7, align 8, !tbaa !3
  %113 = getelementptr inbounds nuw %struct.decContext, ptr %112, i32 0, i32 0
  %114 = load i32, ptr %113, align 4, !tbaa !32
  %115 = add nsw i32 %114, 1
  %116 = sub nsw i32 %115, 1
  %117 = sdiv i32 %116, 1
  br label %118

118:                                              ; preds = %111, %103
  %119 = phi i32 [ %110, %103 ], [ %117, %111 ]
  %120 = sub nsw i32 %119, 1
  %121 = mul nsw i32 %120, 1
  %122 = sub nsw i32 %98, %121
  store i32 %122, ptr %12, align 4, !tbaa !7
  br label %123

123:                                              ; preds = %191, %118
  %124 = load ptr, ptr %10, align 8, !tbaa !11
  %125 = load ptr, ptr %11, align 8, !tbaa !11
  %126 = icmp ule ptr %124, %125
  br i1 %126, label %127, label %196

127:                                              ; preds = %123
  call void @llvm.lifetime.start.p0(i64 1, ptr %14) #8
  call void @llvm.lifetime.start.p0(i64 4, ptr %15) #8
  call void @llvm.lifetime.start.p0(i64 4, ptr %16) #8
  %128 = load ptr, ptr %8, align 8, !tbaa !11
  %129 = load ptr, ptr %9, align 8, !tbaa !11
  %130 = icmp ugt ptr %128, %129
  br i1 %130, label %131, label %132

131:                                              ; preds = %127
  store i8 0, ptr %14, align 1, !tbaa !13
  br label %135

132:                                              ; preds = %127
  %133 = load ptr, ptr %8, align 8, !tbaa !11
  %134 = load i8, ptr %133, align 1, !tbaa !13
  store i8 %134, ptr %14, align 1, !tbaa !13
  br label %135

135:                                              ; preds = %132, %131
  %136 = load ptr, ptr %10, align 8, !tbaa !11
  store i8 0, ptr %136, align 1, !tbaa !13
  store i32 0, ptr %15, align 4, !tbaa !7
  br label %137

137:                                              ; preds = %184, %135
  %138 = load i32, ptr %15, align 4, !tbaa !7
  %139 = icmp slt i32 %138, 1
  br i1 %139, label %140, label %187

140:                                              ; preds = %137
  %141 = load i8, ptr %14, align 1, !tbaa !13
  %142 = zext i8 %141 to i32
  %143 = xor i32 %142, -1
  %144 = and i32 %143, 1
  %145 = icmp ne i32 %144, 0
  br i1 %145, label %146, label %159

146:                                              ; preds = %140
  %147 = load ptr, ptr %10, align 8, !tbaa !11
  %148 = load i8, ptr %147, align 1, !tbaa !13
  %149 = zext i8 %148 to i32
  %150 = load i32, ptr %15, align 4, !tbaa !7
  %151 = sext i32 %150 to i64
  %152 = getelementptr inbounds [10 x i32], ptr @_ZL9DECPOWERS, i64 0, i64 %151
  %153 = load i32, ptr %152, align 4, !tbaa !7
  %154 = trunc i32 %153 to i8
  %155 = zext i8 %154 to i32
  %156 = add nsw i32 %149, %155
  %157 = trunc i32 %156 to i8
  %158 = load ptr, ptr %10, align 8, !tbaa !11
  store i8 %157, ptr %158, align 1, !tbaa !13
  br label %159

159:                                              ; preds = %146, %140
  %160 = load i8, ptr %14, align 1, !tbaa !13
  %161 = zext i8 %160 to i32
  %162 = srem i32 %161, 10
  store i32 %162, ptr %16, align 4, !tbaa !7
  %163 = load i8, ptr %14, align 1, !tbaa !13
  %164 = zext i8 %163 to i32
  %165 = sdiv i32 %164, 10
  %166 = trunc i32 %165 to i8
  store i8 %166, ptr %14, align 1, !tbaa !13
  %167 = load i32, ptr %16, align 4, !tbaa !7
  %168 = icmp sgt i32 %167, 1
  br i1 %168, label %169, label %173

169:                                              ; preds = %159
  %170 = load ptr, ptr %5, align 8, !tbaa !3
  %171 = load ptr, ptr %7, align 8, !tbaa !3
  call void @_ZL9decStatusP9decNumberjP10decContext(ptr noundef %170, i32 noundef 128, ptr noundef %171)
  %172 = load ptr, ptr %5, align 8, !tbaa !3
  store ptr %172, ptr %4, align 8
  store i32 1, ptr %13, align 4
  br label %188

173:                                              ; preds = %159
  %174 = load ptr, ptr %10, align 8, !tbaa !11
  %175 = load ptr, ptr %11, align 8, !tbaa !11
  %176 = icmp eq ptr %174, %175
  br i1 %176, label %177, label %183

177:                                              ; preds = %173
  %178 = load i32, ptr %15, align 4, !tbaa !7
  %179 = load i32, ptr %12, align 4, !tbaa !7
  %180 = sub nsw i32 %179, 1
  %181 = icmp eq i32 %178, %180
  br i1 %181, label %182, label %183

182:                                              ; preds = %177
  br label %187

183:                                              ; preds = %177, %173
  br label %184

184:                                              ; preds = %183
  %185 = load i32, ptr %15, align 4, !tbaa !7
  %186 = add nsw i32 %185, 1
  store i32 %186, ptr %15, align 4, !tbaa !7
  br label %137, !llvm.loop !85

187:                                              ; preds = %182, %137
  store i32 0, ptr %13, align 4
  br label %188

188:                                              ; preds = %187, %169
  call void @llvm.lifetime.end.p0(i64 4, ptr %16) #8
  call void @llvm.lifetime.end.p0(i64 4, ptr %15) #8
  call void @llvm.lifetime.end.p0(i64 1, ptr %14) #8
  %189 = load i32, ptr %13, align 4
  switch i32 %189, label %216 [
    i32 0, label %190
  ]

190:                                              ; preds = %188
  br label %191

191:                                              ; preds = %190
  %192 = load ptr, ptr %8, align 8, !tbaa !11
  %193 = getelementptr inbounds nuw i8, ptr %192, i32 1
  store ptr %193, ptr %8, align 8, !tbaa !11
  %194 = load ptr, ptr %10, align 8, !tbaa !11
  %195 = getelementptr inbounds nuw i8, ptr %194, i32 1
  store ptr %195, ptr %10, align 8, !tbaa !11
  br label %123, !llvm.loop !86

196:                                              ; preds = %123
  %197 = load ptr, ptr %5, align 8, !tbaa !3
  %198 = getelementptr inbounds nuw %struct.decNumber, ptr %197, i32 0, i32 3
  %199 = getelementptr inbounds [1 x i8], ptr %198, i64 0, i64 0
  %200 = load ptr, ptr %10, align 8, !tbaa !11
  %201 = load ptr, ptr %5, align 8, !tbaa !3
  %202 = getelementptr inbounds nuw %struct.decNumber, ptr %201, i32 0, i32 3
  %203 = getelementptr inbounds [1 x i8], ptr %202, i64 0, i64 0
  %204 = ptrtoint ptr %200 to i64
  %205 = ptrtoint ptr %203 to i64
  %206 = sub i64 %204, %205
  %207 = trunc i64 %206 to i32
  %208 = call noundef i32 @_ZL12decGetDigitsPhi(ptr noundef %199, i32 noundef %207)
  %209 = load ptr, ptr %5, align 8, !tbaa !3
  %210 = getelementptr inbounds nuw %struct.decNumber, ptr %209, i32 0, i32 0
  store i32 %208, ptr %210, align 4, !tbaa !16
  %211 = load ptr, ptr %5, align 8, !tbaa !3
  %212 = getelementptr inbounds nuw %struct.decNumber, ptr %211, i32 0, i32 1
  store i32 0, ptr %212, align 4, !tbaa !17
  %213 = load ptr, ptr %5, align 8, !tbaa !3
  %214 = getelementptr inbounds nuw %struct.decNumber, ptr %213, i32 0, i32 2
  store i8 0, ptr %214, align 4, !tbaa !9
  %215 = load ptr, ptr %5, align 8, !tbaa !3
  store ptr %215, ptr %4, align 8
  store i32 1, ptr %13, align 4
  br label %216

216:                                              ; preds = %196, %188, %35
  call void @llvm.lifetime.end.p0(i64 4, ptr %12) #8
  call void @llvm.lifetime.end.p0(i64 8, ptr %11) #8
  call void @llvm.lifetime.end.p0(i64 8, ptr %10) #8
  call void @llvm.lifetime.end.p0(i64 8, ptr %9) #8
  call void @llvm.lifetime.end.p0(i64 8, ptr %8) #8
  %217 = load ptr, ptr %4, align 8
  ret ptr %217
}