; Function Attrs: mustprogress uwtable
define noundef ptr @uprv_decNumberInvert_77(ptr noundef returned %0, ptr noundef readonly %1, ptr noundef %2) local_unnamed_addr #3 {
  %4 = getelementptr inbounds nuw i8, ptr %1, i64 4
  %5 = load i32, ptr %4, align 4, !tbaa !8
  %.not = icmp eq i32 %5, 0
  br i1 %.not, label %6, label %9

6:                                                ; preds = %3
  %7 = getelementptr inbounds nuw i8, ptr %1, i64 8
  %8 = load i8, ptr %7, align 4, !tbaa !3
  %or.cond = icmp ult i8 %8, 16
  br i1 %or.cond, label %14, label %9

9:                                                ; preds = %6, %3
  %10 = getelementptr inbounds nuw i8, ptr %0, i64 8
  %11 = getelementptr inbounds nuw i8, ptr %0, i64 4
  store i32 0, ptr %11, align 4, !tbaa !8
  store i32 1, ptr %0, align 4, !tbaa !9
  %12 = getelementptr inbounds nuw i8, ptr %0, i64 9
  store i8 0, ptr %12, align 1, !tbaa !10
  store i8 32, ptr %10, align 4, !tbaa !3
  %13 = tail call ptr @uprv_decContextSetStatus_77(ptr noundef %2, i32 noundef 128)
  br label %72

14:                                               ; preds = %6
  %15 = getelementptr inbounds nuw i8, ptr %1, i64 9
  %.ptr = getelementptr inbounds nuw i8, ptr %0, i64 9
  %16 = load i32, ptr %1, align 4, !tbaa !9
  %17 = icmp slt i32 %16, 50
  br i1 %17, label %18, label %23

18:                                               ; preds = %14
  %19 = sext i32 %16 to i64
  %20 = getelementptr inbounds [50 x i8], ptr @_ZL8d2utable, i64 0, i64 %19
  %21 = load i8, ptr %20, align 1, !tbaa !10
  %22 = zext i8 %21 to i32
  br label %23

23:                                               ; preds = %14, %18
  %24 = phi i32 [ %22, %18 ], [ %16, %14 ]
  %25 = zext nneg i32 %24 to i64
  %26 = getelementptr inbounds nuw i8, ptr %15, i64 %25
  %27 = getelementptr inbounds i8, ptr %26, i64 -1
  %28 = load i32, ptr %2, align 4, !tbaa !27
  %29 = icmp slt i32 %28, 50
  br i1 %29, label %31, label %.thread

.thread:                                          ; preds = %23
  %30 = zext nneg i32 %28 to i64
  br label %.lr.ph

31:                                               ; preds = %23
  %32 = sext i32 %28 to i64
  %33 = getelementptr inbounds [50 x i8], ptr @_ZL8d2utable, i64 0, i64 %32
  %34 = load i8, ptr %33, align 1, !tbaa !10
  %35 = zext i8 %34 to i64
  %36 = zext i8 %34 to i32
  %.not6781 = icmp eq i32 %28, 0
  br i1 %.not6781, label %._crit_edge, label %.lr.ph

.lr.ph:                                           ; preds = %.thread, %31
  %.pn90 = phi i64 [ %30, %.thread ], [ %35, %31 ]
  %37 = phi i32 [ %28, %.thread ], [ %36, %31 ]
  %.pn = getelementptr inbounds nuw i8, ptr %0, i64 %.pn90
  %.ptr8589 = getelementptr inbounds nuw i8, ptr %.pn, i64 8
  %38 = icmp eq i32 %28, %37
  br label %39

39:                                               ; preds = %.lr.ph, %.split77.us
  %.05684 = phi ptr [ %15, %.lr.ph ], [ %57, %.split77.us ]
  %.05782 = phi ptr [ %.ptr, %.lr.ph ], [ %58, %.split77.us ]
  %40 = icmp ugt ptr %.05684, %27
  br i1 %40, label %43, label %41

41:                                               ; preds = %39
  %42 = load i8, ptr %.05684, align 1, !tbaa !10
  br label %43

43:                                               ; preds = %39, %41
  %.053 = phi i8 [ %42, %41 ], [ 0, %39 ]
  store i8 0, ptr %.05782, align 1, !tbaa !10
  %44 = icmp eq ptr %.05782, %.ptr8589
  %or.cond69 = select i1 %44, i1 %38, i1 false
  %or.cond69.fr = freeze i1 %or.cond69
  %45 = and i8 %.053, 1
  %.not68.not.us = icmp eq i8 %45, 0
  br i1 %or.cond69.fr, label %.split.us, label %.split, !llvm.loop !77

.split.us:                                        ; preds = %43
  br i1 %.not68.not.us, label %46, label %47

46:                                               ; preds = %.split.us
  store i8 1, ptr %.05782, align 1, !tbaa !10
  br label %47

47:                                               ; preds = %46, %.split.us
  %48 = urem i8 %.053, 10
  %49 = icmp samesign ugt i8 %48, 1
  br i1 %49, label %.split79.us, label %.split77.us

.split:                                           ; preds = %43
  br i1 %.not68.not.us, label %50, label %51

50:                                               ; preds = %.split
  store i8 1, ptr %.05782, align 1, !tbaa !10
  br label %51

51:                                               ; preds = %50, %.split
  %52 = urem i8 %.053, 10
  %53 = icmp samesign ugt i8 %52, 1
  br i1 %53, label %.split79.us, label %.split77.us

.split79.us:                                      ; preds = %51, %47
  %54 = getelementptr inbounds nuw i8, ptr %0, i64 8
  %55 = getelementptr inbounds nuw i8, ptr %0, i64 4
  store i32 0, ptr %55, align 4, !tbaa !8
  store i32 1, ptr %0, align 4, !tbaa !9
  store i8 0, ptr %.ptr, align 1, !tbaa !10
  store i8 32, ptr %54, align 4, !tbaa !3
  %56 = tail call ptr @uprv_decContextSetStatus_77(ptr noundef nonnull %2, i32 noundef 128)
  br label %72

.split77.us:                                      ; preds = %51, %47
  %57 = getelementptr inbounds nuw i8, ptr %.05684, i64 1
  %58 = getelementptr inbounds nuw i8, ptr %.05782, i64 1
  %.not67 = icmp ugt ptr %58, %.ptr8589
  br i1 %.not67, label %._crit_edge, label %39, !llvm.loop !78

._crit_edge:                                      ; preds = %.split77.us, %31
  %.057.lcssa = phi ptr [ %.ptr, %31 ], [ %58, %.split77.us ]
  %59 = ptrtoint ptr %.057.lcssa to i64
  %60 = ptrtoint ptr %.ptr to i64
  %61 = sub i64 %59, %60
  %62 = trunc i64 %61 to i32
  %sext = shl i64 %61, 32
  %63 = ashr exact i64 %sext, 32
  %64 = getelementptr i8, ptr %.ptr, i64 %63
  %.01011.i = getelementptr i8, ptr %64, i64 -1
  %.not12.i = icmp ult ptr %.01011.i, %.ptr
  br i1 %.not12.i, label %_ZL12decGetDigitsPhi.exit, label %.lr.ph.i

.lr.ph.i:                                         ; preds = %._crit_edge, %68
  %.01014.i = phi ptr [ %.010.i, %68 ], [ %.01011.i, %._crit_edge ]
  %.013.i = phi i32 [ %69, %68 ], [ %62, %._crit_edge ]
  %65 = load i8, ptr %.01014.i, align 1, !tbaa !10
  %66 = icmp ne i8 %65, 0
  %67 = icmp eq i32 %.013.i, 1
  %or.cond.i = select i1 %66, i1 true, i1 %67
  br i1 %or.cond.i, label %_ZL12decGetDigitsPhi.exit, label %68

68:                                               ; preds = %.lr.ph.i
  %69 = add nsw i32 %.013.i, -1
  %.010.i = getelementptr i8, ptr %.01014.i, i64 -1
  %.not.i = icmp ult ptr %.010.i, %.ptr
  br i1 %.not.i, label %_ZL12decGetDigitsPhi.exit, label %.lr.ph.i, !llvm.loop !13

_ZL12decGetDigitsPhi.exit:                        ; preds = %.lr.ph.i, %68, %._crit_edge
  %.0.lcssa.i = phi i32 [ %62, %._crit_edge ], [ %69, %68 ], [ %.013.i, %.lr.ph.i ]
  store i32 %.0.lcssa.i, ptr %0, align 4, !tbaa !9
  %70 = getelementptr inbounds nuw i8, ptr %0, i64 4
  store i32 0, ptr %70, align 4, !tbaa !8
  %71 = getelementptr inbounds nuw i8, ptr %0, i64 8
  store i8 0, ptr %71, align 4, !tbaa !3
  br label %72

72:                                               ; preds = %.split79.us, %_ZL12decGetDigitsPhi.exit, %9
  ret ptr %0
}